target datalayout = "e-m:e-p270:32:32-p271:32:32-p272:64:64-i64:64-i128:128-f80:128-n8:16:32:64-S128"
target triple = "x86_64-unknown-linux-gnu"

%struct.ArchCPU = type { %struct.CPUState, %struct.CPUArchState, ptr, ptr, %struct.RISCVCPUConfig, ptr, i32, ptr }
%struct.CPUState = type { %struct.DeviceState, ptr, i32, i32, ptr, i32, i8, i8, ptr, i8, i8, i8, i8, i8, i8, i8, i8, i32, i32, i32, i32, i64, i64, i64, [1 x %struct.__jmp_buf_tag], %struct.QemuMutex, %struct.anon, ptr, i32, ptr, ptr, ptr, ptr, i32, i32, %union.anon, %union.anon.0, %union.anon.1, ptr, ptr, i64, i32, ptr, ptr, ptr, i32, i64, i32, %struct.QemuLockCnt, [1 x i64], ptr, i32, i32, i32, i32, i32, ptr, i8, i8, i64, i8, i8, ptr, [8 x i8], [0 x i8], %struct.CPUNegativeOffsetState }
%struct.DeviceState = type { %struct.Object, ptr, ptr, i8, i8, i64, ptr, i32, i8, ptr, %struct.NamedGPIOListHead, %struct.NamedClockListHead, %struct.BusStateHead, i32, i32, i32, %struct.ResettableState, ptr, %struct.MemReentrancyGuard }
%struct.Object = type { ptr, ptr, ptr, i32, ptr }
%struct.NamedGPIOListHead = type { ptr }
%struct.NamedClockListHead = type { ptr }
%struct.BusStateHead = type { ptr }
%struct.ResettableState = type { i32, i8, i8 }
%struct.MemReentrancyGuard = type { i8 }
%struct.__jmp_buf_tag = type { [8 x i64], i32, %struct.__sigset_t }
%struct.__sigset_t = type { [16 x i64] }
%struct.QemuMutex = type { %union.pthread_mutex_t, i8 }
%union.pthread_mutex_t = type { %struct.__pthread_mutex_s }
%struct.__pthread_mutex_s = type { i32, i32, i32, i32, i32, i16, i16, %struct.__pthread_internal_list }
%struct.__pthread_internal_list = type { ptr, ptr }
%struct.anon = type { ptr, ptr }
%union.anon = type { %struct.QTailQLink }
%struct.QTailQLink = type { ptr, ptr }
%union.anon.0 = type { %struct.QTailQLink }
%union.anon.1 = type { %struct.QTailQLink }
%struct.QemuLockCnt = type { i32 }
%struct.CPUNegativeOffsetState = type { %struct.CPUTLB, %union.IcountDecr, i8, [11 x i8] }
%struct.CPUTLB = type { %struct.CPUTLBCommon, [16 x %struct.CPUTLBDesc], [16 x %struct.CPUTLBDescFast] }
%struct.CPUTLBCommon = type { %struct.QemuSpin, i16, i64, i64, i64 }
%struct.QemuSpin = type { i32 }
%struct.CPUTLBDesc = type { i64, i64, i64, i64, i64, i64, [8 x %union.CPUTLBEntry], [8 x %struct.CPUTLBEntryFull], ptr }
%union.CPUTLBEntry = type { %struct.anon.2 }
%struct.anon.2 = type { i64, i64, i64, i64 }
%struct.CPUTLBEntryFull = type { i64, i64, %struct.MemTxAttrs, i8, i8, [3 x i8], %union.anon.3 }
%struct.MemTxAttrs = type { i32 }
%union.anon.3 = type { %struct.anon.4 }
%struct.anon.4 = type { i8, i8, i8 }
%struct.CPUTLBDescFast = type { i64, ptr }
%union.IcountDecr = type { i32 }
%struct.CPUArchState = type { [32 x i64], [32 x i64], [512 x i64], i64, i64, i64, i64, i64, i8, i64, i64, i64, [32 x i64], i64, %struct.float_status, i64, i64, i64, i64, i64, i64, i32, i32, i32, i32, i32, i64, i64, i32, i64, i64, ptr, ptr, i8, i64, i64, [8 x i8] }
%struct.float_status = type { i16, i8, i8, i8, i8, i8, i8, i8, i8, i8, i8, i8 }
%struct.RISCVCPUConfig = type { i8, i8, i8, i8, i8, i8, i8, i8, i8, i8, i8, i8, i8, i8, i8, i8, i8, i8, i8, i8, i8, i8, i8, i8, i8, i8, i8, i8, i8, i8, i8, i8, i8, i8, i8, i8, i8, i8, i8, i8, i8, i8, i8, i8, i8, i8, i8, i8, i8, i8, i8, i8, i8, i8, i8, i8, i8, i8, i8, i8, i8, i8, i8, i8, i8, i8, i8, i8, i8, i8, i8, i8, i8, i8, i8, i8, i8, i8, i32, i64, i64, i8, i8, i8, i8, i8, i8, i8, i8, i8, i8, i8, i8, i32, ptr, ptr, ptr, ptr, i16, i16, i16, i16, i8, i8, i8, i8, i8 }

@.str.218 = private unnamed_addr constant [27 x i8] c"../qemu/target/riscv/cpu.c\00", align 1
@.str.250 = private unnamed_addr constant [10 x i8] c"riscv-cpu\00", align 1
@.str.282 = private unnamed_addr constant [31 x i8] c"../qemu/target/riscv/cpu-qom.h\00", align 1
@__func__.RISCV_CPU = private unnamed_addr constant [10 x i8] c"RISCV_CPU\00", align 1
@.str.316 = private unnamed_addr constant [18 x i8] c"riscv-dynamic-cpu\00", align 1
@__func__.cpu_set_marchid = private unnamed_addr constant [16 x i8] c"cpu_set_marchid\00", align 1
@.str.352 = private unnamed_addr constant [36 x i8] c"Unable to change %s marchid (0x%lu)\00", align 1
@.str.353 = private unnamed_addr constant [72 x i8] c"Unable to set marchid with MSB (%u) bit set and the remaining bits zero\00", align 1

; Function Attrs: nounwind sspstrong uwtable
define internal i32 @riscv_cpu_mxl(ptr noundef %env) #0 {
entry:
  %env.addr = alloca ptr, align 8
  store ptr %env, ptr %env.addr, align 8
  %0 = load ptr, ptr %env.addr, align 8
  %misa_mxl = getelementptr inbounds %struct.CPUArchState, ptr %0, i32 0, i32 21
  %1 = load i32, ptr %misa_mxl, align 16
  ret i32 %1
}

; Function Attrs: nounwind sspstrong uwtable
define internal ptr @RISCV_CPU(ptr noundef %obj) #0 {
entry:
  %obj.addr = alloca ptr, align 8
  store ptr %obj, ptr %obj.addr, align 8
  %0 = load ptr, ptr %obj.addr, align 8
  %call = call ptr @object_dynamic_cast_assert(ptr noundef %0, ptr noundef @.str.250, ptr noundef @.str.282, i32 noundef 46, ptr noundef @__func__.RISCV_CPU)
  ret ptr %call
}

; Function Attrs: nounwind sspstrong uwtable
define internal zeroext i1 @riscv_cpu_is_dynamic(ptr noundef %cpu_obj) #0 {
entry:
  %cpu_obj.addr = alloca ptr, align 8
  store ptr %cpu_obj, ptr %cpu_obj.addr, align 8
  %0 = load ptr, ptr %cpu_obj.addr, align 8
  %call = call ptr @object_dynamic_cast(ptr noundef %0, ptr noundef @.str.316)
  %cmp = icmp ne ptr %call, null
  ret i1 %cmp
}

; Function Attrs: nounwind sspstrong uwtable
define internal void @cpu_set_marchid(ptr noundef %obj, ptr noundef %v, ptr noundef %name, ptr noundef %opaque, ptr noundef %errp) #0 {
entry:
  %obj.addr = alloca ptr, align 8
  %v.addr = alloca ptr, align 8
  %name.addr = alloca ptr, align 8
  %opaque.addr = alloca ptr, align 8
  %errp.addr = alloca ptr, align 8
  %dynamic_cpu = alloca i8, align 1
  %cpu = alloca ptr, align 8
  %prev_val = alloca i64, align 8
  %value = alloca i64, align 8
  %invalid_val = alloca i64, align 8
  %mxlen = alloca i32, align 4
  store ptr %obj, ptr %obj.addr, align 8
  store ptr %v, ptr %v.addr, align 8
  store ptr %name, ptr %name.addr, align 8
  store ptr %opaque, ptr %opaque.addr, align 8
  store ptr %errp, ptr %errp.addr, align 8
  %0 = load ptr, ptr %obj.addr, align 8
  %call = call zeroext i1 @riscv_cpu_is_dynamic(ptr noundef %0)
  %frombool = zext i1 %call to i8
  store i8 %frombool, ptr %dynamic_cpu, align 1
  %1 = load ptr, ptr %obj.addr, align 8
  %call1 = call ptr @RISCV_CPU(ptr noundef %1)
  store ptr %call1, ptr %cpu, align 8
  %2 = load ptr, ptr %cpu, align 8
  %cfg = getelementptr inbounds %struct.ArchCPU, ptr %2, i32 0, i32 4
  %marchid = getelementptr inbounds %struct.RISCVCPUConfig, ptr %cfg, i32 0, i32 79
  %3 = load i64, ptr %marchid, align 8
  store i64 %3, ptr %prev_val, align 8
  store i32 0, ptr %mxlen, align 4
  %4 = load ptr, ptr %v.addr, align 8
  %5 = load ptr, ptr %name.addr, align 8
  %6 = load ptr, ptr %errp.addr, align 8
  %call2 = call zeroext i1 @visit_type_uint64(ptr noundef %4, ptr noundef %5, ptr noundef %value, ptr noundef %6)
  br i1 %call2, label %if.end, label %if.then

if.then:                                          ; preds = %entry
  br label %return

if.end:                                           ; preds = %entry
  %7 = load i8, ptr %dynamic_cpu, align 1
  %tobool = trunc i8 %7 to i1
  br i1 %tobool, label %if.end5, label %land.lhs.true

land.lhs.true:                                    ; preds = %if.end
  %8 = load i64, ptr %prev_val, align 8
  %9 = load i64, ptr %value, align 8
  %cmp = icmp ne i64 %8, %9
  br i1 %cmp, label %if.then3, label %if.end5

if.then3:                                         ; preds = %land.lhs.true
  %10 = load ptr, ptr %errp.addr, align 8
  %11 = load ptr, ptr %obj.addr, align 8
  %call4 = call ptr @object_get_typename(ptr noundef %11)
  %12 = load i64, ptr %prev_val, align 8
  call void (ptr, ptr, i32, ptr, ptr, ...) @error_setg_internal(ptr noundef %10, ptr noundef @.str.218, i32 noundef 1625, ptr noundef @__func__.cpu_set_marchid, ptr noundef @.str.352, ptr noundef %call4, i64 noundef %12)
  br label %return

if.end5:                                          ; preds = %land.lhs.true, %if.end
  %13 = load ptr, ptr %cpu, align 8
  %env = getelementptr inbounds %struct.ArchCPU, ptr %13, i32 0, i32 1
  %call6 = call i32 @riscv_cpu_mxl(ptr noundef %env)
  switch i32 %call6, label %sw.default [
    i32 1, label %sw.bb
    i32 2, label %sw.bb7
    i32 3, label %sw.bb7
  ]

sw.bb:                                            ; preds = %if.end5
  store i32 32, ptr %mxlen, align 4
  br label %sw.epilog

sw.bb7:                                           ; preds = %if.end5, %if.end5
  store i32 64, ptr %mxlen, align 4
  br label %sw.epilog

sw.default:                                       ; preds = %if.end5
  br label %do.body

do.body:                                          ; preds = %sw.default
  call void @g_assertion_message_expr(ptr noundef null, ptr noundef @.str.218, i32 noundef 1638, ptr noundef @__func__.cpu_set_marchid, ptr noundef null) #8
  unreachable

do.end:                                           ; No predecessors!
  br label %sw.epilog

sw.epilog:                                        ; preds = %do.end, %sw.bb7, %sw.bb
  %14 = load i32, ptr %mxlen, align 4
  %sub = sub i32 %14, 1
  %sh_prom = zext i32 %sub to i64
  %shl = shl i64 1, %sh_prom
  store i64 %shl, ptr %invalid_val, align 8
  %15 = load i64, ptr %value, align 8
  %16 = load i64, ptr %invalid_val, align 8
  %cmp8 = icmp eq i64 %15, %16
  br i1 %cmp8, label %if.then9, label %if.end10

if.then9:                                         ; preds = %sw.epilog
  %17 = load ptr, ptr %errp.addr, align 8
  %18 = load i32, ptr %mxlen, align 4
  call void (ptr, ptr, i32, ptr, ptr, ...) @error_setg_internal(ptr noundef %17, ptr noundef @.str.218, i32 noundef 1645, ptr noundef @__func__.cpu_set_marchid, ptr noundef @.str.353, i32 noundef %18)
  br label %return

if.end10:                                         ; preds = %sw.epilog
  %19 = load i64, ptr %value, align 8
  %20 = load ptr, ptr %cpu, align 8
  %cfg11 = getelementptr inbounds %struct.ArchCPU, ptr %20, i32 0, i32 4
  %marchid12 = getelementptr inbounds %struct.RISCVCPUConfig, ptr %cfg11, i32 0, i32 79
  store i64 %19, ptr %marchid12, align 8
  br label %return

return:                                           ; preds = %if.end10, %if.then9, %if.then3, %if.then
  ret void
}