; Function Attrs: nounwind sspstrong uwtable
define internal void @cpu_set_marchid(ptr noundef %obj, ptr noundef %v, ptr noundef %name, ptr readnone captures(none) %opaque, ptr noundef %errp) #3 {
entry:
  %value = alloca i64, align 8
  %call.i = tail call ptr @object_dynamic_cast(ptr noundef %obj, ptr noundef nonnull @.str.316) #14
  %call.i10 = tail call ptr @object_dynamic_cast_assert(ptr noundef %obj, ptr noundef nonnull @.str.250, ptr noundef nonnull @.str.282, i32 noundef 46, ptr noundef nonnull @__func__.RISCV_CPU) #14
  %marchid = getelementptr inbounds nuw i8, ptr %call.i10, i64 15400
  %0 = load i64, ptr %marchid, align 8
  %call2 = call zeroext i1 @visit_type_uint64(ptr noundef %v, ptr noundef %name, ptr noundef nonnull %value, ptr noundef %errp) #14
  br i1 %call2, label %if.end, label %return

if.end:                                           ; preds = %entry
  %cmp.i = icmp ne ptr %call.i, null
  %1 = load i64, ptr %value, align 8
  %cmp.not = icmp eq i64 %0, %1
  %or.cond = select i1 %cmp.i, i1 true, i1 %cmp.not
  br i1 %or.cond, label %if.end5, label %if.then3

if.then3:                                         ; preds = %if.end
  %call4 = call ptr @object_get_typename(ptr noundef %obj) #14
  call void (ptr, ptr, i32, ptr, ptr, ...) @error_setg_internal(ptr noundef %errp, ptr noundef nonnull @.str.218, i32 noundef 1625, ptr noundef nonnull @__func__.cpu_set_marchid, ptr noundef nonnull @.str.352, ptr noundef %call4, i64 noundef %0) #14
  br label %return

if.end5:                                          ; preds = %if.end
  %2 = getelementptr i8, ptr %call.i10, i64 15184
  %env.val = load i32, ptr %2, align 16
  %switch.tableidx = add i32 %env.val, -1
  %3 = icmp ult i32 %switch.tableidx, 3
  br i1 %3, label %switch.lookup, label %do.body

do.body:                                          ; preds = %if.end5
  call void @g_assertion_message_expr(ptr noundef null, ptr noundef nonnull @.str.218, i32 noundef 1638, ptr noundef nonnull @__func__.cpu_set_marchid, ptr noundef null) #15
  unreachable

switch.lookup:                                    ; preds = %if.end5
  %4 = zext nneg i32 %switch.tableidx to i64
  %switch.gep = getelementptr inbounds nuw [3 x i32], ptr @switch.table.cpu_set_marchid, i64 0, i64 %4
  %switch.load = load i32, ptr %switch.gep, align 4
  %sub = add nsw i32 %switch.load, -1
  %sh_prom = zext nneg i32 %sub to i64
  %shl = shl nuw i64 1, %sh_prom
  %cmp8 = icmp eq i64 %1, %shl
  br i1 %cmp8, label %if.then9, label %if.end10

if.then9:                                         ; preds = %switch.lookup
  call void (ptr, ptr, i32, ptr, ptr, ...) @error_setg_internal(ptr noundef %errp, ptr noundef nonnull @.str.218, i32 noundef 1645, ptr noundef nonnull @__func__.cpu_set_marchid, ptr noundef nonnull @.str.353, i32 noundef %switch.load) #14
  br label %return

if.end10:                                         ; preds = %switch.lookup
  store i64 %1, ptr %marchid, align 8
  br label %return

return:                                           ; preds = %entry, %if.end10, %if.then9, %if.then3
  ret void
}